target datalayout = "e-m:e-p270:32:32-p271:32:32-p272:64:64-i64:64-i128:128-f80:128-n8:16:32:64-S128"
target triple = "x86_64-pc-linux-gnu"

%"class.icu_77::UObject" = type { ptr }
%"class.icu_77::Calendar" = type <{ %"class.icu_77::UObject", [24 x i32], [24 x i8], i8, [7 x i8], double, ptr, i8, i16, i8, i32, i32, i32, i8, i8, i16, [4 x i8], ptr, ptr }>

; Function Attrs: mustprogress nounwind uwtable
define void @_ZN6icu_778Calendar24setSkippedWallTimeOptionE23UCalendarWallTimeOption(ptr noundef nonnull align 8 dereferenceable(192) %0, i32 noundef %1) #0 align 2 {
  %3 = alloca ptr, align 8
  %4 = alloca i32, align 4
  store ptr %0, ptr %3, align 8, !tbaa !37
  store i32 %1, ptr %4, align 4, !tbaa !127
  %5 = load ptr, ptr %3, align 8
  %6 = load i32, ptr %4, align 4, !tbaa !127
  %7 = getelementptr inbounds nuw %"class.icu_77::Calendar", ptr %5, i32 0, i32 8
  %8 = trunc i32 %6 to i16
  %9 = load i16, ptr %7, align 1
  %10 = and i16 %8, 7
  %11 = and i16 %9, -8
  %12 = or i16 %11, %10
  store i16 %12, ptr %7, align 1
  ret void
}