; Function Attrs: mustprogress nofree norecurse nosync nounwind willreturn memory(argmem: readwrite) uwtable
define void @_ZN6icu_778Calendar24setSkippedWallTimeOptionE23UCalendarWallTimeOption(ptr noundef nonnull align 8 captures(none) dereferenceable(192) %0, i32 noundef %1) local_unnamed_addr #12 align 2 {
  %3 = getelementptr inbounds nuw i8, ptr %0, i64 153
  %4 = trunc i32 %1 to i16
  %5 = load i16, ptr %3, align 1
  %6 = and i16 %4, 7
  %7 = and i16 %5, -8
  %8 = or disjoint i16 %7, %6
  store i16 %8, ptr %3, align 1
  ret void
}